target datalayout = "e-m:e-p270:32:32-p271:32:32-p272:64:64-i64:64-i128:128-f80:128-n8:16:32:64-S128"
target triple = "x86_64-pc-linux-gnu"

%struct.Node = type { i32 }
%union.ListCell = type { ptr }
%struct.Expr = type { i32 }
%struct.OpExpr = type { %struct.Expr, i32, i32, i32, i8, i32, i32, ptr, i32 }

; Function Attrs: inlinehint nounwind uwtable
define internal ptr @newNode(i64 noundef %0, i32 noundef %1) #2 {
  %3 = alloca i64, align 8
  %4 = alloca i32, align 4
  %5 = alloca ptr, align 8
  store i64 %0, ptr %3, align 8
  store i32 %1, ptr %4, align 4
  call void @llvm.lifetime.start.p0(i64 8, ptr %5) #6
  %6 = load i64, ptr %3, align 8
  %7 = call ptr @palloc0(i64 noundef %6)
  store ptr %7, ptr %5, align 8
  %8 = load i32, ptr %4, align 4
  %9 = load ptr, ptr %5, align 8
  %10 = getelementptr inbounds nuw %struct.Node, ptr %9, i32 0, i32 0
  store i32 %8, ptr %10, align 4
  %11 = load ptr, ptr %5, align 8
  call void @llvm.lifetime.end.p0(i64 8, ptr %5) #6
  ret ptr %11
}

; Function Attrs: nounwind uwtable
define dso_local ptr @make_opclause(i32 noundef %0, i32 noundef %1, i1 noundef zeroext %2, ptr noundef %3, ptr noundef %4, i32 noundef %5, i32 noundef %6) #0 {
  %8 = alloca i32, align 4
  %9 = alloca i32, align 4
  %10 = alloca i8, align 1
  %11 = alloca ptr, align 8
  %12 = alloca ptr, align 8
  %13 = alloca i32, align 4
  %14 = alloca i32, align 4
  %15 = alloca ptr, align 8
  %16 = alloca %union.ListCell, align 8
  %17 = alloca %union.ListCell, align 8
  %18 = alloca %union.ListCell, align 8
  store i32 %0, ptr %8, align 4
  store i32 %1, ptr %9, align 4
  %19 = zext i1 %2 to i8
  store i8 %19, ptr %10, align 1
  store ptr %3, ptr %11, align 8
  store ptr %4, ptr %12, align 8
  store i32 %5, ptr %13, align 4
  store i32 %6, ptr %14, align 4
  call void @llvm.lifetime.start.p0(i64 8, ptr %15) #6
  %20 = call ptr @newNode(i64 noundef 48, i32 noundef 17)
  store ptr %20, ptr %15, align 8
  %21 = load i32, ptr %8, align 4
  %22 = load ptr, ptr %15, align 8
  %23 = getelementptr inbounds nuw %struct.OpExpr, ptr %22, i32 0, i32 1
  store i32 %21, ptr %23, align 4
  %24 = load ptr, ptr %15, align 8
  %25 = getelementptr inbounds nuw %struct.OpExpr, ptr %24, i32 0, i32 2
  store i32 0, ptr %25, align 8
  %26 = load i32, ptr %9, align 4
  %27 = load ptr, ptr %15, align 8
  %28 = getelementptr inbounds nuw %struct.OpExpr, ptr %27, i32 0, i32 3
  store i32 %26, ptr %28, align 4
  %29 = load i8, ptr %10, align 1, !range !4, !noundef !5
  %30 = trunc i8 %29 to i1
  %31 = load ptr, ptr %15, align 8
  %32 = getelementptr inbounds nuw %struct.OpExpr, ptr %31, i32 0, i32 4
  %33 = zext i1 %30 to i8
  store i8 %33, ptr %32, align 8
  %34 = load i32, ptr %13, align 4
  %35 = load ptr, ptr %15, align 8
  %36 = getelementptr inbounds nuw %struct.OpExpr, ptr %35, i32 0, i32 5
  store i32 %34, ptr %36, align 4
  %37 = load i32, ptr %14, align 4
  %38 = load ptr, ptr %15, align 8
  %39 = getelementptr inbounds nuw %struct.OpExpr, ptr %38, i32 0, i32 6
  store i32 %37, ptr %39, align 8
  %40 = load ptr, ptr %12, align 8
  %41 = icmp ne ptr %40, null
  br i1 %41, label %42, label %52

42:                                               ; preds = %7
  %43 = load ptr, ptr %11, align 8
  store ptr %43, ptr %16, align 8
  %44 = load ptr, ptr %12, align 8
  store ptr %44, ptr %17, align 8
  %45 = getelementptr inbounds nuw %union.ListCell, ptr %16, i32 0, i32 0
  %46 = load ptr, ptr %45, align 8
  %47 = getelementptr inbounds nuw %union.ListCell, ptr %17, i32 0, i32 0
  %48 = load ptr, ptr %47, align 8
  %49 = call ptr @list_make2_impl(i32 noundef 1, ptr %46, ptr %48)
  %50 = load ptr, ptr %15, align 8
  %51 = getelementptr inbounds nuw %struct.OpExpr, ptr %50, i32 0, i32 7
  store ptr %49, ptr %51, align 8
  br label %59

52:                                               ; preds = %7
  %53 = load ptr, ptr %11, align 8
  store ptr %53, ptr %18, align 8
  %54 = getelementptr inbounds nuw %union.ListCell, ptr %18, i32 0, i32 0
  %55 = load ptr, ptr %54, align 8
  %56 = call ptr @list_make1_impl(i32 noundef 1, ptr %55)
  %57 = load ptr, ptr %15, align 8
  %58 = getelementptr inbounds nuw %struct.OpExpr, ptr %57, i32 0, i32 7
  store ptr %56, ptr %58, align 8
  br label %59

59:                                               ; preds = %52, %42
  %60 = load ptr, ptr %15, align 8
  %61 = getelementptr inbounds nuw %struct.OpExpr, ptr %60, i32 0, i32 8
  store i32 -1, ptr %61, align 8
  %62 = load ptr, ptr %15, align 8
  call void @llvm.lifetime.end.p0(i64 8, ptr %15) #6
  ret ptr %62
}