; Function Attrs: nounwind uwtable
define dso_local noundef ptr @make_opclause(i32 noundef %0, i32 noundef %1, i1 noundef zeroext %2, ptr noundef %3, ptr noundef %4, i32 noundef %5, i32 noundef %6) local_unnamed_addr #0 {
  %8 = zext i1 %2 to i8
  %9 = tail call noundef ptr @palloc0(i64 noundef 48) #7
  store i32 17, ptr %9, align 4
  %10 = getelementptr inbounds nuw i8, ptr %9, i64 4
  store i32 %0, ptr %10, align 4
  %11 = getelementptr inbounds nuw i8, ptr %9, i64 8
  store i32 0, ptr %11, align 8
  %12 = getelementptr inbounds nuw i8, ptr %9, i64 12
  store i32 %1, ptr %12, align 4
  %13 = getelementptr inbounds nuw i8, ptr %9, i64 16
  store i8 %8, ptr %13, align 8
  %14 = getelementptr inbounds nuw i8, ptr %9, i64 20
  store i32 %5, ptr %14, align 4
  %15 = getelementptr inbounds nuw i8, ptr %9, i64 24
  store i32 %6, ptr %15, align 8
  %.not = icmp eq ptr %4, null
  br i1 %.not, label %18, label %16

16:                                               ; preds = %7
  %17 = tail call ptr @list_make2_impl(i32 noundef 1, ptr %3, ptr nonnull %4) #7
  br label %20

18:                                               ; preds = %7
  %19 = tail call ptr @list_make1_impl(i32 noundef 1, ptr %3) #7
  br label %20

20:                                               ; preds = %18, %16
  %.sink = phi ptr [ %19, %18 ], [ %17, %16 ]
  %21 = getelementptr inbounds nuw i8, ptr %9, i64 32
  store ptr %.sink, ptr %21, align 8
  %22 = getelementptr inbounds nuw i8, ptr %9, i64 40
  store i32 -1, ptr %22, align 8
  ret ptr %9
}